; ModuleID = 'source-C-CXX/53/1569.c'
source_filename = "source-C-CXX/53/1569.c"
target datalayout = "e-m:e-p270:32:32-p271:32:32-p272:64:64-i64:64-f80:128-n8:16:32:64-S128"
target triple = "x86_64-pc-linux-gnu"

@.str = private unnamed_addr constant [5 x i8] c"%d%d\00", align 1
@.str.1 = private unnamed_addr constant [4 x i8] c"%d\0A\00", align 1

; Function Attrs: nofree nounwind sspstrong uwtable
define dso_local i32 @main() local_unnamed_addr #0 {
  %1 = alloca i32, align 4
  %2 = alloca i32, align 4
  %3 = bitcast i32* %1 to i8*
  call void @llvm.lifetime.start.p0i8(i64 4, i8* nonnull %3) #3
  %4 = bitcast i32* %2 to i8*
  call void @llvm.lifetime.start.p0i8(i64 4, i8* nonnull %4) #3
  %5 = call i32 (i8*, ...) @__isoc99_scanf(i8* getelementptr inbounds ([5 x i8], [5 x i8]* @.str, i64 0, i64 0), i32* nonnull %1, i32* nonnull %2)
  %6 = load i32, i32* %1, align 4, !tbaa !5
  %7 = load i32, i32* %2, align 4, !tbaa !5
  %8 = add nsw i32 %7, %6
  %9 = icmp sgt i32 %6, 0
  br i1 %9, label %10, label %27

10:                                               ; preds = %0, %18
  %11 = phi i32 [ %19, %18 ], [ %8, %0 ]
  br label %12

12:                                               ; preds = %10, %20
  %13 = phi i32 [ 0, %10 ], [ %23, %20 ]
  %14 = phi i32 [ %11, %10 ], [ %22, %20 ]
  %15 = srem i32 %14, %6
  %16 = sdiv i32 %14, %6
  %17 = icmp eq i32 %15, %7
  br i1 %17, label %20, label %18

18:                                               ; preds = %12, %25
  %19 = add nsw i32 %11, %6
  br label %10

20:                                               ; preds = %12
  %21 = add i32 %7, %16
  %22 = sub i32 %14, %21
  %23 = add nuw nsw i32 %13, 1
  %24 = icmp eq i32 %23, %6
  br i1 %24, label %25, label %12, !llvm.loop !9

25:                                               ; preds = %20
  %26 = icmp sgt i32 %22, 0
  br i1 %26, label %31, label %18

27:                                               ; preds = %0, %27
  %28 = phi i32 [ %30, %27 ], [ %8, %0 ]
  %29 = icmp sgt i32 %28, 0
  %30 = add nsw i32 %28, %6
  br i1 %29, label %31, label %27

31:                                               ; preds = %27, %25
  %32 = phi i32 [ %11, %25 ], [ %28, %27 ]
  %33 = call i32 (i8*, ...) @printf(i8* nonnull dereferenceable(1) getelementptr inbounds ([4 x i8], [4 x i8]* @.str.1, i64 0, i64 0), i32 %32)
  call void @llvm.lifetime.end.p0i8(i64 4, i8* nonnull %4) #3
  call void @llvm.lifetime.end.p0i8(i64 4, i8* nonnull %3) #3
  ret i32 0
}

; Function Attrs: argmemonly mustprogress nofree nosync nounwind willreturn
declare void @llvm.lifetime.start.p0i8(i64 immarg, i8* nocapture) #1

; Function Attrs: nofree nounwind
declare noundef i32 @__isoc99_scanf(i8* nocapture noundef readonly, ...) local_unnamed_addr #2

; Function Attrs: argmemonly mustprogress nofree nosync nounwind willreturn
declare void @llvm.lifetime.end.p0i8(i64 immarg, i8* nocapture) #1

; Function Attrs: nofree nounwind
declare noundef i32 @printf(i8* nocapture noundef readonly, ...) local_unnamed_addr #2


!llvm.module.flags = !{!0, !1, !2, !3}
!llvm.ident = !{!4}

!0 = !{i32 1, !"wchar_size", i32 4}
!1 = !{i32 7, !"PIC Level", i32 2}
!2 = !{i32 7, !"PIE Level", i32 2}
!3 = !{i32 7, !"uwtable", i32 1}
!4 = !{!"clang version 13.0.0"}
!5 = !{!6, !6, i64 0}
!6 = !{!"int", !7, i64 0}
!7 = !{!"omnipotent char", !8, i64 0}
!8 = !{!"Simple C/C++ TBAA"}
!9 = distinct !{!9, !10}
!10 = !{!"llvm.loop.mustprogress"}
